target datalayout = "e-m:e-p270:32:32-p271:32:32-p272:64:64-i64:64-i128:128-f80:128-n8:16:32:64-S128"
target triple = "x86_64-pc-linux-gnu"

%"struct.std::_Vector_base" = type { %"struct.std::_Vector_base<cv::Mat, std::allocator<cv::Mat>>::_Vector_impl" }
%"struct.std::_Vector_base<cv::Mat, std::allocator<cv::Mat>>::_Vector_impl" = type { %"struct.std::_Vector_base<cv::Mat, std::allocator<cv::Mat>>::_Vector_impl_data" }
%"struct.std::_Vector_base<cv::Mat, std::allocator<cv::Mat>>::_Vector_impl_data" = type { ptr, ptr, ptr }
%"class.cv::Mat" = type { i32, i32, i32, i32, ptr, ptr, ptr, ptr, ptr, ptr, %"struct.cv::MatSize", %"struct.cv::MatStep" }
%"struct.cv::MatSize" = type { ptr }
%"struct.cv::MatStep" = type { ptr, [2 x i64] }
%"class.cv::_InputArray" = type { i32, ptr, %"class.cv::Size_" }
%"class.cv::Size_" = type { i32, i32 }
%"class.cv::Rect_" = type { i32, i32, i32, i32 }
%"class.cv::_OutputArray" = type { %"class.cv::_InputArray" }
%"class.__gnu_cxx::__normal_iterator.18" = type { ptr }

; Function Attrs: inlinehint mustprogress nounwind uwtable
define linkonce_odr hidden void @_ZN2cv5Size_IiEC2Ev(ptr noundef nonnull align 4 dereferenceable(8) %0) unnamed_addr #9 comdat align 2 {
  %2 = alloca ptr, align 8
  store ptr %0, ptr %2, align 8, !tbaa !136
  %3 = load ptr, ptr %2, align 8
  %4 = getelementptr inbounds nuw %"class.cv::Size_", ptr %3, i32 0, i32 0
  store i32 0, ptr %4, align 4, !tbaa !131
  %5 = getelementptr inbounds nuw %"class.cv::Size_", ptr %3, i32 0, i32 1
  store i32 0, ptr %5, align 4, !tbaa !133
  ret void
}

; Function Attrs: mustprogress nounwind uwtable
define linkonce_odr hidden noundef nonnull align 8 dereferenceable(8) ptr @_ZNK9__gnu_cxx17__normal_iteratorIPKN2cv3MatESt6vectorIS2_SaIS2_EEE4baseEv(ptr noundef nonnull align 8 dereferenceable(8) %0) #7 comdat align 2 {
  %2 = alloca ptr, align 8
  store ptr %0, ptr %2, align 8, !tbaa !157
  %3 = load ptr, ptr %2, align 8
  %4 = getelementptr inbounds nuw %"class.__gnu_cxx::__normal_iterator.18", ptr %3, i32 0, i32 0
  ret ptr %4
}

; Function Attrs: mustprogress nounwind uwtable
define linkonce_odr hidden void @_ZN9__gnu_cxx17__normal_iteratorIPKN2cv3MatESt6vectorIS2_SaIS2_EEEC2ERKS4_(ptr noundef nonnull align 8 dereferenceable(8) %0, ptr noundef nonnull align 8 dereferenceable(8) %1) unnamed_addr #7 comdat align 2 {
  %3 = alloca ptr, align 8
  %4 = alloca ptr, align 8
  store ptr %0, ptr %3, align 8, !tbaa !157
  store ptr %1, ptr %4, align 8, !tbaa !161
  %5 = load ptr, ptr %3, align 8
  %6 = getelementptr inbounds nuw %"class.__gnu_cxx::__normal_iterator.18", ptr %5, i32 0, i32 0
  %7 = load ptr, ptr %4, align 8, !tbaa !161
  %8 = load ptr, ptr %7, align 8, !tbaa !44
  store ptr %8, ptr %6, align 8, !tbaa !159
  ret void
}

; Function Attrs: inlinehint mustprogress nounwind uwtable
define linkonce_odr hidden void @_ZN2cv11_InputArray4initEiPKv(ptr noundef nonnull align 8 dereferenceable(24) %0, i32 noundef %1, ptr noundef %2) #9 comdat align 2 {
  %4 = alloca ptr, align 8
  %5 = alloca i32, align 4
  %6 = alloca ptr, align 8
  store ptr %0, ptr %4, align 8, !tbaa !76
  store i32 %1, ptr %5, align 4, !tbaa !4
  store ptr %2, ptr %6, align 8, !tbaa !37
  %7 = load ptr, ptr %4, align 8
  %8 = load i32, ptr %5, align 4, !tbaa !4
  %9 = getelementptr inbounds nuw %"class.cv::_InputArray", ptr %7, i32 0, i32 0
  store i32 %8, ptr %9, align 8, !tbaa !152
  %10 = load ptr, ptr %6, align 8, !tbaa !37
  %11 = getelementptr inbounds nuw %"class.cv::_InputArray", ptr %7, i32 0, i32 1
  store ptr %10, ptr %11, align 8, !tbaa !154
  ret void
}

; Function Attrs: inlinehint mustprogress uwtable
define linkonce_odr hidden void @_ZN2cv11_InputArrayC2Ev(ptr noundef nonnull align 8 dereferenceable(24) %0) unnamed_addr #8 comdat align 2 {
  %2 = alloca ptr, align 8
  store ptr %0, ptr %2, align 8, !tbaa !76
  %3 = load ptr, ptr %2, align 8
  %4 = getelementptr inbounds nuw %"class.cv::_InputArray", ptr %3, i32 0, i32 2
  call void @_ZN2cv5Size_IiEC2Ev(ptr noundef nonnull align 4 dereferenceable(8) %4)
  call void @_ZN2cv11_InputArray4initEiPKv(ptr noundef nonnull align 8 dereferenceable(24) %3, i32 noundef 0, ptr noundef null)
  ret void
}

; Function Attrs: inlinehint mustprogress nounwind uwtable
define linkonce_odr hidden noundef zeroext i1 @_ZN9__gnu_cxxeqIPKN2cv3MatESt6vectorIS2_SaIS2_EEEEbRKNS_17__normal_iteratorIT_T0_EESD_(ptr noundef nonnull align 8 dereferenceable(8) %0, ptr noundef nonnull align 8 dereferenceable(8) %1) #9 comdat {
  %3 = alloca ptr, align 8
  %4 = alloca ptr, align 8
  store ptr %0, ptr %3, align 8, !tbaa !157
  store ptr %1, ptr %4, align 8, !tbaa !157
  %5 = load ptr, ptr %3, align 8, !tbaa !157
  %6 = call noundef nonnull align 8 dereferenceable(8) ptr @_ZNK9__gnu_cxx17__normal_iteratorIPKN2cv3MatESt6vectorIS2_SaIS2_EEE4baseEv(ptr noundef nonnull align 8 dereferenceable(8) %5) #3
  %7 = load ptr, ptr %6, align 8, !tbaa !44
  %8 = load ptr, ptr %4, align 8, !tbaa !157
  %9 = call noundef nonnull align 8 dereferenceable(8) ptr @_ZNK9__gnu_cxx17__normal_iteratorIPKN2cv3MatESt6vectorIS2_SaIS2_EEE4baseEv(ptr noundef nonnull align 8 dereferenceable(8) %8) #3
  %10 = load ptr, ptr %9, align 8, !tbaa !44
  %11 = icmp eq ptr %7, %10
  ret i1 %11
}

; Function Attrs: mustprogress nounwind uwtable
define linkonce_odr hidden ptr @_ZNKSt6vectorIN2cv3MatESaIS1_EE3endEv(ptr noundef nonnull align 8 dereferenceable(24) %0) #7 comdat align 2 {
  %2 = alloca %"class.__gnu_cxx::__normal_iterator.18", align 8
  %3 = alloca ptr, align 8
  store ptr %0, ptr %3, align 8, !tbaa !29
  %4 = load ptr, ptr %3, align 8
  %5 = getelementptr inbounds nuw %"struct.std::_Vector_base", ptr %4, i32 0, i32 0
  %6 = getelementptr inbounds nuw %"struct.std::_Vector_base<cv::Mat, std::allocator<cv::Mat>>::_Vector_impl_data", ptr %5, i32 0, i32 1
  call void @_ZN9__gnu_cxx17__normal_iteratorIPKN2cv3MatESt6vectorIS2_SaIS2_EEEC2ERKS4_(ptr noundef nonnull align 8 dereferenceable(8) %2, ptr noundef nonnull align 8 dereferenceable(8) %6) #3
  %7 = getelementptr inbounds nuw %"class.__gnu_cxx::__normal_iterator.18", ptr %2, i32 0, i32 0
  %8 = load ptr, ptr %7, align 8
  ret ptr %8
}

; Function Attrs: mustprogress nounwind uwtable
define linkonce_odr hidden ptr @_ZNKSt6vectorIN2cv3MatESaIS1_EE5beginEv(ptr noundef nonnull align 8 dereferenceable(24) %0) #7 comdat align 2 {
  %2 = alloca %"class.__gnu_cxx::__normal_iterator.18", align 8
  %3 = alloca ptr, align 8
  store ptr %0, ptr %3, align 8, !tbaa !29
  %4 = load ptr, ptr %3, align 8
  %5 = getelementptr inbounds nuw %"struct.std::_Vector_base", ptr %4, i32 0, i32 0
  %6 = getelementptr inbounds nuw %"struct.std::_Vector_base<cv::Mat, std::allocator<cv::Mat>>::_Vector_impl_data", ptr %5, i32 0, i32 0
  call void @_ZN9__gnu_cxx17__normal_iteratorIPKN2cv3MatESt6vectorIS2_SaIS2_EEEC2ERKS4_(ptr noundef nonnull align 8 dereferenceable(8) %2, ptr noundef nonnull align 8 dereferenceable(8) %6) #3
  %7 = getelementptr inbounds nuw %"class.__gnu_cxx::__normal_iterator.18", ptr %2, i32 0, i32 0
  %8 = load ptr, ptr %7, align 8
  ret ptr %8
}

; Function Attrs: inlinehint mustprogress nounwind uwtable
define linkonce_odr hidden void @_ZN2cv11_InputArrayD2Ev(ptr noundef nonnull align 8 dereferenceable(24) %0) unnamed_addr #9 comdat align 2 {
  %2 = alloca ptr, align 8
  store ptr %0, ptr %2, align 8, !tbaa !76
  ret void
}

; Function Attrs: inlinehint mustprogress uwtable
define linkonce_odr hidden void @_ZN2cv12_OutputArrayC2ERNS_3MatE(ptr noundef nonnull align 8 dereferenceable(24) %0, ptr noundef nonnull align 8 dereferenceable(96) %1) unnamed_addr #8 comdat align 2 {
  %3 = alloca ptr, align 8
  %4 = alloca ptr, align 8
  store ptr %0, ptr %3, align 8, !tbaa !101
  store ptr %1, ptr %4, align 8, !tbaa !44
  %5 = load ptr, ptr %3, align 8
  call void @_ZN2cv11_InputArrayC2Ev(ptr noundef nonnull align 8 dereferenceable(24) %5)
  %6 = load ptr, ptr %4, align 8, !tbaa !44
  call void @_ZN2cv11_InputArray4initEiPKv(ptr noundef nonnull align 8 dereferenceable(24) %5, i32 noundef 33619968, ptr noundef %6)
  ret void
}

; Function Attrs: inlinehint mustprogress uwtable
define linkonce_odr hidden void @_ZNK2cv3MatclERKNS_5Rect_IiEE(ptr dead_on_unwind noalias writable sret(%"class.cv::Mat") align 8 %0, ptr noundef nonnull align 8 dereferenceable(96) %1, ptr noundef nonnull align 4 dereferenceable(16) %2) #8 comdat align 2 {
  %4 = alloca ptr, align 8
  %5 = alloca ptr, align 8
  %6 = alloca ptr, align 8
  store ptr %0, ptr %4, align 8
  store ptr %1, ptr %5, align 8, !tbaa !44
  store ptr %2, ptr %6, align 8, !tbaa !78
  %7 = load ptr, ptr %5, align 8
  %8 = load ptr, ptr %6, align 8, !tbaa !78
  call void @_ZN2cv3MatC1ERKS0_RKNS_5Rect_IiEE(ptr noundef nonnull align 8 dereferenceable(96) %0, ptr noundef nonnull align 8 dereferenceable(96) %7, ptr noundef nonnull align 4 dereferenceable(16) %8)
  ret void
}

; Function Attrs: inlinehint mustprogress nounwind uwtable
define linkonce_odr hidden void @_ZN2cv5Rect_IiEC2Eiiii(ptr noundef nonnull align 4 dereferenceable(16) %0, i32 noundef %1, i32 noundef %2, i32 noundef %3, i32 noundef %4) unnamed_addr #9 comdat align 2 {
  %6 = alloca ptr, align 8
  %7 = alloca i32, align 4
  %8 = alloca i32, align 4
  %9 = alloca i32, align 4
  %10 = alloca i32, align 4
  store ptr %0, ptr %6, align 8, !tbaa !78
  store i32 %1, ptr %7, align 4, !tbaa !4
  store i32 %2, ptr %8, align 4, !tbaa !4
  store i32 %3, ptr %9, align 4, !tbaa !4
  store i32 %4, ptr %10, align 4, !tbaa !4
  %11 = load ptr, ptr %6, align 8
  %12 = getelementptr inbounds nuw %"class.cv::Rect_", ptr %11, i32 0, i32 0
  %13 = load i32, ptr %7, align 4, !tbaa !4
  store i32 %13, ptr %12, align 4, !tbaa !80
  %14 = getelementptr inbounds nuw %"class.cv::Rect_", ptr %11, i32 0, i32 1
  %15 = load i32, ptr %8, align 4, !tbaa !4
  store i32 %15, ptr %14, align 4, !tbaa !82
  %16 = getelementptr inbounds nuw %"class.cv::Rect_", ptr %11, i32 0, i32 2
  %17 = load i32, ptr %9, align 4, !tbaa !4
  store i32 %17, ptr %16, align 4, !tbaa !83
  %18 = getelementptr inbounds nuw %"class.cv::Rect_", ptr %11, i32 0, i32 3
  %19 = load i32, ptr %10, align 4, !tbaa !4
  store i32 %19, ptr %18, align 4, !tbaa !84
  ret void
}

; Function Attrs: inlinehint mustprogress nounwind uwtable
define linkonce_odr hidden noundef i32 @_ZNK2cv3Mat4typeEv(ptr noundef nonnull align 8 dereferenceable(96) %0) #9 comdat align 2 {
  %2 = alloca ptr, align 8
  store ptr %0, ptr %2, align 8, !tbaa !44
  %3 = load ptr, ptr %2, align 8
  %4 = getelementptr inbounds nuw %"class.cv::Mat", ptr %3, i32 0, i32 0
  %5 = load i32, ptr %4, align 8, !tbaa !219
  %6 = and i32 %5, 4095
  ret i32 %6
}

; Function Attrs: mustprogress nounwind uwtable
define linkonce_odr hidden noundef nonnull align 8 dereferenceable(96) ptr @_ZNKSt6vectorIN2cv3MatESaIS1_EEixEm(ptr noundef nonnull align 8 dereferenceable(24) %0, i64 noundef %1) #7 comdat align 2 {
  %3 = alloca ptr, align 8
  %4 = alloca i64, align 8
  store ptr %0, ptr %3, align 8, !tbaa !29
  store i64 %1, ptr %4, align 8, !tbaa !14
  %5 = load ptr, ptr %3, align 8
  %6 = getelementptr inbounds nuw %"struct.std::_Vector_base", ptr %5, i32 0, i32 0
  %7 = getelementptr inbounds nuw %"struct.std::_Vector_base<cv::Mat, std::allocator<cv::Mat>>::_Vector_impl_data", ptr %6, i32 0, i32 0
  %8 = load ptr, ptr %7, align 8, !tbaa !43
  %9 = load i64, ptr %4, align 8, !tbaa !14
  %10 = getelementptr inbounds nuw %"class.cv::Mat", ptr %8, i64 %9
  ret ptr %10
}

; Function Attrs: inlinehint mustprogress nounwind uwtable
define linkonce_odr hidden void @_ZN2cv5Size_IiEC2Eii(ptr noundef nonnull align 4 dereferenceable(8) %0, i32 noundef %1, i32 noundef %2) unnamed_addr #9 comdat align 2 {
  %4 = alloca ptr, align 8
  %5 = alloca i32, align 4
  %6 = alloca i32, align 4
  store ptr %0, ptr %4, align 8, !tbaa !136
  store i32 %1, ptr %5, align 4, !tbaa !4
  store i32 %2, ptr %6, align 4, !tbaa !4
  %7 = load ptr, ptr %4, align 8
  %8 = getelementptr inbounds nuw %"class.cv::Size_", ptr %7, i32 0, i32 0
  %9 = load i32, ptr %5, align 4, !tbaa !4
  store i32 %9, ptr %8, align 4, !tbaa !131
  %10 = getelementptr inbounds nuw %"class.cv::Size_", ptr %7, i32 0, i32 1
  %11 = load i32, ptr %6, align 4, !tbaa !4
  store i32 %11, ptr %10, align 4, !tbaa !133
  ret void
}

; Function Attrs: mustprogress nounwind uwtable
define linkonce_odr hidden noundef zeroext i1 @_ZNKSt6vectorIN2cv3MatESaIS1_EE5emptyEv(ptr noundef nonnull align 8 dereferenceable(24) %0) #7 comdat align 2 {
  %2 = alloca ptr, align 8
  %3 = alloca %"class.__gnu_cxx::__normal_iterator.18", align 8
  %4 = alloca %"class.__gnu_cxx::__normal_iterator.18", align 8
  store ptr %0, ptr %2, align 8, !tbaa !29
  %5 = load ptr, ptr %2, align 8
  call void @llvm.lifetime.start.p0(i64 8, ptr %3) #3
  %6 = call ptr @_ZNKSt6vectorIN2cv3MatESaIS1_EE5beginEv(ptr noundef nonnull align 8 dereferenceable(24) %5) #3
  %7 = getelementptr inbounds nuw %"class.__gnu_cxx::__normal_iterator.18", ptr %3, i32 0, i32 0
  store ptr %6, ptr %7, align 8
  call void @llvm.lifetime.start.p0(i64 8, ptr %4) #3
  %8 = call ptr @_ZNKSt6vectorIN2cv3MatESaIS1_EE3endEv(ptr noundef nonnull align 8 dereferenceable(24) %5) #3
  %9 = getelementptr inbounds nuw %"class.__gnu_cxx::__normal_iterator.18", ptr %4, i32 0, i32 0
  store ptr %8, ptr %9, align 8
  %10 = call noundef zeroext i1 @_ZN9__gnu_cxxeqIPKN2cv3MatESt6vectorIS2_SaIS2_EEEEbRKNS_17__normal_iteratorIT_T0_EESD_(ptr noundef nonnull align 8 dereferenceable(8) %3, ptr noundef nonnull align 8 dereferenceable(8) %4) #3
  call void @llvm.lifetime.end.p0(i64 8, ptr %4) #3
  call void @llvm.lifetime.end.p0(i64 8, ptr %3) #3
  ret i1 %10
}

; Function Attrs: mustprogress nounwind uwtable
define linkonce_odr hidden noundef i64 @_ZNKSt6vectorIN2cv3MatESaIS1_EE4sizeEv(ptr noundef nonnull align 8 dereferenceable(24) %0) #7 comdat align 2 {
  %2 = alloca ptr, align 8
  store ptr %0, ptr %2, align 8, !tbaa !29
  %3 = load ptr, ptr %2, align 8
  %4 = getelementptr inbounds nuw %"struct.std::_Vector_base", ptr %3, i32 0, i32 0
  %5 = getelementptr inbounds nuw %"struct.std::_Vector_base<cv::Mat, std::allocator<cv::Mat>>::_Vector_impl_data", ptr %4, i32 0, i32 1
  %6 = load ptr, ptr %5, align 8, !tbaa !40
  %7 = getelementptr inbounds nuw %"struct.std::_Vector_base", ptr %3, i32 0, i32 0
  %8 = getelementptr inbounds nuw %"struct.std::_Vector_base<cv::Mat, std::allocator<cv::Mat>>::_Vector_impl_data", ptr %7, i32 0, i32 0
  %9 = load ptr, ptr %8, align 8, !tbaa !43
  %10 = ptrtoint ptr %6 to i64
  %11 = ptrtoint ptr %9 to i64
  %12 = sub i64 %10, %11
  %13 = sdiv exact i64 %12, 96
  ret i64 %13
}

; Function Attrs: mustprogress uwtable
define internal void @_ZL6mosaiciRKSt6vectorIN2cv3MatESaIS1_EERS1_(i32 noundef %0, ptr noundef nonnull align 8 dereferenceable(24) %1, ptr noundef nonnull align 8 dereferenceable(96) %2) #5 personality ptr @__gxx_personality_v0 {
  %4 = alloca i32, align 4
  %5 = alloca ptr, align 8
  %6 = alloca ptr, align 8
  %7 = alloca i32, align 4
  %8 = alloca i32, align 4
  %9 = alloca %"class.cv::Mat", align 8
  %10 = alloca %"class.cv::Size_", align 4
  %11 = alloca ptr, align 8
  %12 = alloca i32, align 4
  %13 = alloca i64, align 8
  %14 = alloca %"class.cv::Mat", align 8
  %15 = alloca %"class.cv::Rect_", align 4
  %16 = alloca %"class.cv::_OutputArray", align 8
  store i32 %0, ptr %4, align 4, !tbaa !4
  store ptr %1, ptr %5, align 8, !tbaa !29
  store ptr %2, ptr %6, align 8, !tbaa !44
  call void @llvm.lifetime.start.p0(i64 4, ptr %7) #3
  %17 = load i32, ptr %4, align 4, !tbaa !4
  %18 = mul nsw i32 20, %17
  store i32 %18, ptr %7, align 4, !tbaa !4
  call void @llvm.lifetime.start.p0(i64 4, ptr %8) #3
  %19 = load ptr, ptr %5, align 8, !tbaa !29
  %20 = call noundef i64 @_ZNKSt6vectorIN2cv3MatESaIS1_EE4sizeEv(ptr noundef nonnull align 8 dereferenceable(24) %19) #3
  %21 = uitofp i64 %20 to double
  %22 = load i32, ptr %4, align 4, !tbaa !4
  %23 = sitofp i32 %22 to double
  %24 = fdiv double %21, %23
  %25 = call double @llvm.ceil.f64(double %24)
  %26 = fptosi double %25 to i32
  %27 = mul nsw i32 20, %26
  store i32 %27, ptr %8, align 4, !tbaa !4
  %28 = load ptr, ptr %5, align 8, !tbaa !29
  %29 = call noundef zeroext i1 @_ZNKSt6vectorIN2cv3MatESaIS1_EE5emptyEv(ptr noundef nonnull align 8 dereferenceable(24) %28) #3
  br i1 %29, label %80, label %30

30:                                               ; preds = %3
  call void @llvm.lifetime.start.p0(i64 96, ptr %9) #3
  %31 = load i32, ptr %7, align 4, !tbaa !4
  %32 = load i32, ptr %8, align 4, !tbaa !4
  call void @_ZN2cv5Size_IiEC2Eii(ptr noundef nonnull align 4 dereferenceable(8) %10, i32 noundef %31, i32 noundef %32)
  %33 = load ptr, ptr %5, align 8, !tbaa !29
  %34 = call noundef nonnull align 8 dereferenceable(96) ptr @_ZNKSt6vectorIN2cv3MatESaIS1_EEixEm(ptr noundef nonnull align 8 dereferenceable(24) %33, i64 noundef 0) #3
  %35 = call noundef i32 @_ZNK2cv3Mat4typeEv(ptr noundef nonnull align 8 dereferenceable(96) %34)
  %36 = load i64, ptr %10, align 4
  call void @_ZN2cv3MatC1ENS_5Size_IiEEi(ptr noundef nonnull align 8 dereferenceable(96) %9, i64 %36, i32 noundef %35)
  %37 = load ptr, ptr %6, align 8, !tbaa !44
  %38 = invoke noundef nonnull align 8 dereferenceable(96) ptr @_ZN2cv3MataSEOS0_(ptr noundef nonnull align 8 dereferenceable(96) %37, ptr noundef nonnull align 8 dereferenceable(96) %9)
          to label %39 unwind label %46

39:                                               ; preds = %30
  call void @_ZN2cv3MatD1Ev(ptr noundef nonnull align 8 dereferenceable(96) %9) #3
  call void @llvm.lifetime.end.p0(i64 96, ptr %9) #3
  call void @llvm.lifetime.start.p0(i64 8, ptr %13) #3
  store i64 0, ptr %13, align 8, !tbaa !14
  br label %40

40:                                               ; preds = %67, %39
  %41 = load i64, ptr %13, align 8, !tbaa !14
  %42 = load ptr, ptr %5, align 8, !tbaa !29
  %43 = call noundef i64 @_ZNKSt6vectorIN2cv3MatESaIS1_EE4sizeEv(ptr noundef nonnull align 8 dereferenceable(24) %42) #3
  %44 = icmp ult i64 %41, %43
  br i1 %44, label %50, label %45

45:                                               ; preds = %40
  call void @llvm.lifetime.end.p0(i64 8, ptr %13) #3
  br label %79

46:                                               ; preds = %30
  %47 = landingpad { ptr, i32 }
          cleanup
  %48 = extractvalue { ptr, i32 } %47, 0
  store ptr %48, ptr %11, align 8
  %49 = extractvalue { ptr, i32 } %47, 1
  store i32 %49, ptr %12, align 4
  call void @_ZN2cv3MatD1Ev(ptr noundef nonnull align 8 dereferenceable(96) %9) #3
  call void @llvm.lifetime.end.p0(i64 96, ptr %9) #3
  br label %81

50:                                               ; preds = %40
  call void @llvm.lifetime.start.p0(i64 96, ptr %14) #3
  %51 = load ptr, ptr %6, align 8, !tbaa !44
  call void @llvm.lifetime.start.p0(i64 16, ptr %15) #3
  %52 = load i64, ptr %13, align 8, !tbaa !14
  %53 = trunc i64 %52 to i32
  %54 = load i32, ptr %4, align 4, !tbaa !4
  %55 = srem i32 %53, %54
  %56 = mul nsw i32 20, %55
  %57 = load i64, ptr %13, align 8, !tbaa !14
  %58 = trunc i64 %57 to i32
  %59 = load i32, ptr %4, align 4, !tbaa !4
  %60 = sdiv i32 %58, %59
  %61 = mul nsw i32 20, %60
  call void @_ZN2cv5Rect_IiEC2Eiiii(ptr noundef nonnull align 4 dereferenceable(16) %15, i32 noundef %56, i32 noundef %61, i32 noundef 20, i32 noundef 20)
  call void @_ZNK2cv3MatclERKNS_5Rect_IiEE(ptr dead_on_unwind writable sret(%"class.cv::Mat") align 8 %14, ptr noundef nonnull align 8 dereferenceable(96) %51, ptr noundef nonnull align 4 dereferenceable(16) %15)
  call void @llvm.lifetime.end.p0(i64 16, ptr %15) #3
  %62 = load ptr, ptr %5, align 8, !tbaa !29
  %63 = load i64, ptr %13, align 8, !tbaa !14
  %64 = call noundef nonnull align 8 dereferenceable(96) ptr @_ZNKSt6vectorIN2cv3MatESaIS1_EEixEm(ptr noundef nonnull align 8 dereferenceable(24) %62, i64 noundef %63) #3
  call void @llvm.lifetime.start.p0(i64 24, ptr %16) #3
  invoke void @_ZN2cv12_OutputArrayC2ERNS_3MatE(ptr noundef nonnull align 8 dereferenceable(24) %16, ptr noundef nonnull align 8 dereferenceable(96) %14)
          to label %65 unwind label %70

65:                                               ; preds = %50
  invoke void @_ZNK2cv3Mat6copyToERKNS_12_OutputArrayE(ptr noundef nonnull align 8 dereferenceable(96) %64, ptr noundef nonnull align 8 dereferenceable(24) %16)
          to label %66 unwind label %74

66:                                               ; preds = %65
  call void @_ZN2cv11_InputArrayD2Ev(ptr noundef nonnull align 8 dereferenceable(24) %16) #3
  call void @llvm.lifetime.end.p0(i64 24, ptr %16) #3
  call void @_ZN2cv3MatD1Ev(ptr noundef nonnull align 8 dereferenceable(96) %14) #3
  call void @llvm.lifetime.end.p0(i64 96, ptr %14) #3
  br label %67

67:                                               ; preds = %66
  %68 = load i64, ptr %13, align 8, !tbaa !14
  %69 = add i64 %68, 1
  store i64 %69, ptr %13, align 8, !tbaa !14
  br label %40, !llvm.loop !71

70:                                               ; preds = %50
  %71 = landingpad { ptr, i32 }
          cleanup
  %72 = extractvalue { ptr, i32 } %71, 0
  store ptr %72, ptr %11, align 8
  %73 = extractvalue { ptr, i32 } %71, 1
  store i32 %73, ptr %12, align 4
  br label %78

74:                                               ; preds = %65
  %75 = landingpad { ptr, i32 }
          cleanup
  %76 = extractvalue { ptr, i32 } %75, 0
  store ptr %76, ptr %11, align 8
  %77 = extractvalue { ptr, i32 } %75, 1
  store i32 %77, ptr %12, align 4
  call void @_ZN2cv11_InputArrayD2Ev(ptr noundef nonnull align 8 dereferenceable(24) %16) #3
  br label %78

78:                                               ; preds = %74, %70
  call void @llvm.lifetime.end.p0(i64 24, ptr %16) #3
  call void @_ZN2cv3MatD1Ev(ptr noundef nonnull align 8 dereferenceable(96) %14) #3
  call void @llvm.lifetime.end.p0(i64 96, ptr %14) #3
  call void @llvm.lifetime.end.p0(i64 8, ptr %13) #3
  br label %81

79:                                               ; preds = %45
  br label %80

80:                                               ; preds = %79, %3
  call void @llvm.lifetime.end.p0(i64 4, ptr %8) #3
  call void @llvm.lifetime.end.p0(i64 4, ptr %7) #3
  ret void

81:                                               ; preds = %78, %46
  call void @llvm.lifetime.end.p0(i64 4, ptr %8) #3
  call void @llvm.lifetime.end.p0(i64 4, ptr %7) #3
  br label %82

82:                                               ; preds = %81
  %83 = load ptr, ptr %11, align 8
  %84 = load i32, ptr %12, align 4
  %85 = insertvalue { ptr, i32 } poison, ptr %83, 0
  %86 = insertvalue { ptr, i32 } %85, i32 %84, 1
  resume { ptr, i32 } %86
}