; Function Attrs: mustprogress norecurse uwtable
define internal fastcc void @_ZL6mosaiciRKSt6vectorIN2cv3MatESaIS1_EERS1_(ptr noundef nonnull readonly align 8 captures(none) dereferenceable(24) %0, ptr noundef nonnull align 8 dereferenceable(96) %1) unnamed_addr #3 personality ptr @__gxx_personality_v0 {
  %3 = alloca %"class.cv::Mat", align 8
  %4 = alloca %"class.cv::Mat", align 8
  %5 = alloca %"class.cv::Rect_", align 4
  %6 = alloca %"class.cv::_OutputArray", align 8
  %7 = getelementptr inbounds nuw i8, ptr %0, i64 8
  %8 = load ptr, ptr %7, align 8, !tbaa !54
  %9 = load ptr, ptr %0, align 8, !tbaa !51
  %10 = icmp eq ptr %9, %8
  br i1 %10, label %.loopexit, label %11

11:                                               ; preds = %2
  %12 = ptrtoint ptr %8 to i64
  %13 = ptrtoint ptr %9 to i64
  %14 = sub i64 %12, %13
  %15 = sdiv exact i64 %14, 96
  %16 = uitofp i64 %15 to double
  %17 = fdiv double %16, 2.500000e+01
  %18 = tail call double @llvm.ceil.f64(double %17)
  %19 = fptosi double %18 to i32
  %20 = mul nsw i32 %19, 20
  call void @llvm.lifetime.start.p0(i64 96, ptr nonnull %3) #21
  %21 = load i32, ptr %9, align 8, !tbaa !129
  %22 = and i32 %21, 4095
  %.sroa.2.0.insert.ext = zext i32 %20 to i64
  %.sroa.2.0.insert.shift = shl nuw i64 %.sroa.2.0.insert.ext, 32
  %.sroa.0.0.insert.insert = or disjoint i64 %.sroa.2.0.insert.shift, 500
  call void @_ZN2cv3MatC1ENS_5Size_IiEEi(ptr noundef nonnull align 8 dereferenceable(96) %3, i64 %.sroa.0.0.insert.insert, i32 noundef %22)
  %23 = invoke noundef nonnull align 8 dereferenceable(96) ptr @_ZN2cv3MataSEOS0_(ptr noundef nonnull align 8 dereferenceable(96) %1, ptr noundef nonnull align 8 dereferenceable(96) %3)
          to label %24 unwind label %32

24:                                               ; preds = %11
  call void @_ZN2cv3MatD1Ev(ptr noundef nonnull align 8 dereferenceable(96) %3) #21
  call void @llvm.lifetime.end.p0(i64 96, ptr nonnull %3) #21
  %25 = load ptr, ptr %7, align 8, !tbaa !54
  %26 = load ptr, ptr %0, align 8, !tbaa !51
  %.not = icmp eq ptr %25, %26
  br i1 %.not, label %.loopexit, label %.lr.ph

.lr.ph:                                           ; preds = %24
  %27 = getelementptr inbounds nuw i8, ptr %5, i64 4
  %28 = getelementptr inbounds nuw i8, ptr %5, i64 8
  %29 = getelementptr inbounds nuw i8, ptr %5, i64 12
  %30 = getelementptr inbounds nuw i8, ptr %6, i64 8
  %31 = getelementptr inbounds nuw i8, ptr %6, i64 16
  br label %34

32:                                               ; preds = %11
  %33 = landingpad { ptr, i32 }
          cleanup
  call void @_ZN2cv3MatD1Ev(ptr noundef nonnull align 8 dereferenceable(96) %3) #21
  call void @llvm.lifetime.end.p0(i64 96, ptr nonnull %3) #21
  br label %53

34:                                               ; preds = %.lr.ph, %42
  %.024 = phi i64 [ 0, %.lr.ph ], [ %43, %42 ]
  call void @llvm.lifetime.start.p0(i64 96, ptr nonnull %4) #21
  call void @llvm.lifetime.start.p0(i64 16, ptr nonnull %5) #21
  %35 = trunc i64 %.024 to i32
  %36 = srem i32 %35, 25
  %37 = mul nsw i32 %36, 20
  %38 = sdiv i32 %35, 25
  %39 = mul nsw i32 %38, 20
  store i32 %37, ptr %5, align 4, !tbaa !57
  store i32 %39, ptr %27, align 4, !tbaa !59
  store i32 20, ptr %28, align 4, !tbaa !60
  store i32 20, ptr %29, align 4, !tbaa !61
  call void @_ZN2cv3MatC1ERKS0_RKNS_5Rect_IiEE(ptr noundef nonnull align 8 dereferenceable(96) %4, ptr noundef nonnull align 8 dereferenceable(96) %1, ptr noundef nonnull align 4 dereferenceable(16) %5)
  call void @llvm.lifetime.end.p0(i64 16, ptr nonnull %5) #21
  %40 = load ptr, ptr %0, align 8, !tbaa !51
  %41 = getelementptr inbounds nuw %"class.cv::Mat", ptr %40, i64 %.024
  call void @llvm.lifetime.start.p0(i64 24, ptr nonnull %6) #21
  store i64 0, ptr %31, align 8
  store i32 33619968, ptr %6, align 8, !tbaa !74
  store ptr %4, ptr %30, align 8, !tbaa !77
  invoke void @_ZNK2cv3Mat6copyToERKNS_12_OutputArrayE(ptr noundef nonnull align 8 dereferenceable(96) %41, ptr noundef nonnull align 8 dereferenceable(24) %6)
          to label %42 unwind label %51

42:                                               ; preds = %34
  call void @llvm.lifetime.end.p0(i64 24, ptr nonnull %6) #21
  call void @_ZN2cv3MatD1Ev(ptr noundef nonnull align 8 dereferenceable(96) %4) #21
  call void @llvm.lifetime.end.p0(i64 96, ptr nonnull %4) #21
  %43 = add nuw i64 %.024, 1
  %44 = load ptr, ptr %7, align 8, !tbaa !54
  %45 = load ptr, ptr %0, align 8, !tbaa !51
  %46 = ptrtoint ptr %44 to i64
  %47 = ptrtoint ptr %45 to i64
  %48 = sub i64 %46, %47
  %49 = sdiv exact i64 %48, 96
  %50 = icmp ult i64 %43, %49
  br i1 %50, label %34, label %.loopexit, !llvm.loop !130

51:                                               ; preds = %34
  %52 = landingpad { ptr, i32 }
          cleanup
  call void @llvm.lifetime.end.p0(i64 24, ptr nonnull %6) #21
  call void @_ZN2cv3MatD1Ev(ptr noundef nonnull align 8 dereferenceable(96) %4) #21
  call void @llvm.lifetime.end.p0(i64 96, ptr nonnull %4) #21
  br label %53

.loopexit:                                        ; preds = %42, %24, %2
  ret void

53:                                               ; preds = %51, %32
  %.pn.pn = phi { ptr, i32 } [ %52, %51 ], [ %33, %32 ]
  resume { ptr, i32 } %.pn.pn
}